; Function Attrs: mustprogress nofree norecurse nosync nounwind willreturn memory(read, inaccessiblemem: none) uwtable
define noundef i64 @_ZN7rocksdb28ParsePackedValueForWriteTimeERKNS_5SliceE(ptr noundef nonnull readonly align 8 captures(none) dereferenceable(16) %0) local_unnamed_addr #4 {
_ZN7rocksdb10GetFixed64EPNS_5SliceEPm.exit:
  %1 = load ptr, ptr %0, align 8, !tbaa !259
  %2 = getelementptr inbounds nuw i8, ptr %0, i64 8
  %3 = load i64, ptr %2, align 8, !tbaa !261
  %4 = getelementptr inbounds nuw i8, ptr %1, i64 %3
  %5 = getelementptr inbounds i8, ptr %4, i64 -8
  %.0.copyload.i.i = load i64, ptr %5, align 1
  ret i64 %.0.copyload.i.i
}